target datalayout = "e-m:e-p270:32:32-p271:32:32-p272:64:64-i64:64-i128:128-f80:128-n8:16:32:64-S128"
target triple = "x86_64-pc-linux-gnu"

%struct.SDL_PathInfo = type { i32, i64, i64, i64, i64 }

@.str = private unnamed_addr constant [26 x i8] c"Parameter '%s' is invalid\00", align 1
@.str.1 = private unnamed_addr constant [5 x i8] c"path\00", align 1

; Function Attrs: nounwind uwtable
define hidden zeroext i1 @SDL_GetPathInfo_REAL(ptr noundef %0, ptr noundef %1) #0 {
  %3 = alloca i1, align 1
  %4 = alloca ptr, align 8
  %5 = alloca ptr, align 8
  %6 = alloca %struct.SDL_PathInfo, align 8
  %7 = alloca i32, align 4
  store ptr %0, ptr %4, align 8
  store ptr %1, ptr %5, align 8
  call void @llvm.lifetime.start.p0(i64 40, ptr %6) #5
  %8 = load ptr, ptr %5, align 8
  %9 = icmp ne ptr %8, null
  br i1 %9, label %11, label %10

10:                                               ; preds = %2
  store ptr %6, ptr %5, align 8
  br label %11

11:                                               ; preds = %10, %2
  %12 = load ptr, ptr %5, align 8
  call void @llvm.memset.p0.i64(ptr align 8 %12, i8 0, i64 40, i1 false)
  %13 = load ptr, ptr %4, align 8
  %14 = icmp ne ptr %13, null
  br i1 %14, label %17, label %15

15:                                               ; preds = %11
  %16 = call zeroext i1 (ptr, ...) @SDL_SetError_REAL(ptr noundef @.str, ptr noundef @.str.1)
  store i1 %16, ptr %3, align 1
  store i32 1, ptr %7, align 4
  br label %21

17:                                               ; preds = %11
  %18 = load ptr, ptr %4, align 8
  %19 = load ptr, ptr %5, align 8
  %20 = call zeroext i1 @SDL_SYS_GetPathInfo(ptr noundef %18, ptr noundef %19)
  store i1 %20, ptr %3, align 1
  store i32 1, ptr %7, align 4
  br label %21

21:                                               ; preds = %17, %15
  call void @llvm.lifetime.end.p0(i64 40, ptr %6) #5
  %22 = load i1, ptr %3, align 1
  ret i1 %22
}

; Function Attrs: nounwind uwtable
define internal zeroext i1 @GlobDirectoryGetPathInfo(ptr noundef %0, ptr noundef %1, ptr noundef %2) #0 {
  %4 = alloca ptr, align 8
  %5 = alloca ptr, align 8
  %6 = alloca ptr, align 8
  store ptr %0, ptr %4, align 8
  store ptr %1, ptr %5, align 8
  store ptr %2, ptr %6, align 8
  %7 = load ptr, ptr %4, align 8
  %8 = load ptr, ptr %5, align 8
  %9 = call zeroext i1 @SDL_GetPathInfo_REAL(ptr noundef %7, ptr noundef %8)
  ret i1 %9
}