; Function Attrs: nounwind uwtable
define internal zeroext i1 @GlobDirectoryGetPathInfo(ptr noundef %0, ptr noundef %1, ptr readnone captures(none) %2) #0 {
  %4 = alloca %struct.SDL_PathInfo, align 8
  call void @llvm.lifetime.start.p0(i64 40, ptr nonnull %4) #8
  %.not.i = icmp eq ptr %1, null
  %spec.store.select.i = select i1 %.not.i, ptr %4, ptr %1
  call void @llvm.memset.p0.i64(ptr noundef nonnull align 8 dereferenceable(40) %spec.store.select.i, i8 0, i64 40, i1 false)
  %.not7.i = icmp eq ptr %0, null
  br i1 %.not7.i, label %5, label %7

5:                                                ; preds = %3
  %6 = tail call zeroext i1 (ptr, ...) @SDL_SetError_REAL(ptr noundef nonnull @.str, ptr noundef nonnull @.str.1) #8
  br label %SDL_GetPathInfo_REAL.exit

7:                                                ; preds = %3
  %8 = call zeroext i1 @SDL_SYS_GetPathInfo(ptr noundef nonnull %0, ptr noundef nonnull %spec.store.select.i) #8
  br label %SDL_GetPathInfo_REAL.exit

SDL_GetPathInfo_REAL.exit:                        ; preds = %5, %7
  %.0.i = phi i1 [ %8, %7 ], [ %6, %5 ]
  call void @llvm.lifetime.end.p0(i64 40, ptr nonnull %4) #8
  ret i1 %.0.i
}